; ModuleID = '14/423.c'
source_filename = "14/423.c"
target datalayout = "e-m:e-p270:32:32-p271:32:32-p272:64:64-i64:64-f80:128-n8:16:32:64-S128"
target triple = "x86_64-pc-linux-gnu"

%struct.student = type { i32, i32, i32, i32, i32 }

@.str = private unnamed_addr constant [3 x i8] c"%d\00", align 1
@.str.1 = private unnamed_addr constant [9 x i8] c"%d %d %d\00", align 1
@stu = common dso_local global [100000 x %struct.student] zeroinitializer, align 16
@.str.2 = private unnamed_addr constant [7 x i8] c"%d %d\0A\00", align 1

; Function Attrs: noinline nounwind uwtable
define dso_local void @main() #0 {
  %1 = alloca i32, align 4
  %2 = alloca i32, align 4
  %3 = alloca i32, align 4
  %4 = alloca i32, align 4
  store i32 0, i32* %3, align 4
  store i32 0, i32* %4, align 4
  %5 = call i32 (i8*, ...) @__isoc99_scanf(i8* getelementptr inbounds ([3 x i8], [3 x i8]* @.str, i64 0, i64 0), i32* %1)
  store i32 0, i32* %2, align 4
  br label %6

6:                                                ; preds = %43, %0
  %7 = load i32, i32* %2, align 4
  %8 = load i32, i32* %1, align 4
  %9 = icmp slt i32 %7, %8
  br i1 %9, label %10, label %46

10:                                               ; preds = %6
  %11 = load i32, i32* %2, align 4
  %12 = sext i32 %11 to i64
  %13 = getelementptr inbounds [100000 x %struct.student], [100000 x %struct.student]* @stu, i64 0, i64 %12
  %14 = getelementptr inbounds %struct.student, %struct.student* %13, i32 0, i32 0
  %15 = load i32, i32* %2, align 4
  %16 = sext i32 %15 to i64
  %17 = getelementptr inbounds [100000 x %struct.student], [100000 x %struct.student]* @stu, i64 0, i64 %16
  %18 = getelementptr inbounds %struct.student, %struct.student* %17, i32 0, i32 1
  %19 = load i32, i32* %2, align 4
  %20 = sext i32 %19 to i64
  %21 = getelementptr inbounds [100000 x %struct.student], [100000 x %struct.student]* @stu, i64 0, i64 %20
  %22 = getelementptr inbounds %struct.student, %struct.student* %21, i32 0, i32 2
  %23 = call i32 (i8*, ...) @__isoc99_scanf(i8* getelementptr inbounds ([9 x i8], [9 x i8]* @.str.1, i64 0, i64 0), i32* %14, i32* %18, i32* %22)
  %24 = load i32, i32* %2, align 4
  %25 = sext i32 %24 to i64
  %26 = getelementptr inbounds [100000 x %struct.student], [100000 x %struct.student]* @stu, i64 0, i64 %25
  %27 = getelementptr inbounds %struct.student, %struct.student* %26, i32 0, i32 1
  %28 = load i32, i32* %27, align 4
  %29 = load i32, i32* %2, align 4
  %30 = sext i32 %29 to i64
  %31 = getelementptr inbounds [100000 x %struct.student], [100000 x %struct.student]* @stu, i64 0, i64 %30
  %32 = getelementptr inbounds %struct.student, %struct.student* %31, i32 0, i32 2
  %33 = load i32, i32* %32, align 4
  %34 = add nsw i32 %28, %33
  %35 = load i32, i32* %2, align 4
  %36 = sext i32 %35 to i64
  %37 = getelementptr inbounds [100000 x %struct.student], [100000 x %struct.student]* @stu, i64 0, i64 %36
  %38 = getelementptr inbounds %struct.student, %struct.student* %37, i32 0, i32 3
  store i32 %34, i32* %38, align 4
  %39 = load i32, i32* %2, align 4
  %40 = sext i32 %39 to i64
  %41 = getelementptr inbounds [100000 x %struct.student], [100000 x %struct.student]* @stu, i64 0, i64 %40
  %42 = getelementptr inbounds %struct.student, %struct.student* %41, i32 0, i32 4
  store i32 0, i32* %42, align 4
  br label %43

43:                                               ; preds = %10
  %44 = load i32, i32* %2, align 4
  %45 = add nsw i32 %44, 1
  store i32 %45, i32* %2, align 4
  br label %6

46:                                               ; preds = %6
  store i32 0, i32* %2, align 4
  br label %47

47:                                               ; preds = %74, %46
  %48 = load i32, i32* %2, align 4
  %49 = load i32, i32* %1, align 4
  %50 = icmp slt i32 %48, %49
  br i1 %50, label %51, label %77

51:                                               ; preds = %47
  %52 = load i32, i32* %3, align 4
  %53 = load i32, i32* %2, align 4
  %54 = sext i32 %53 to i64
  %55 = getelementptr inbounds [100000 x %struct.student], [100000 x %struct.student]* @stu, i64 0, i64 %54
  %56 = getelementptr inbounds %struct.student, %struct.student* %55, i32 0, i32 3
  %57 = load i32, i32* %56, align 4
  %58 = icmp slt i32 %52, %57
  br i1 %58, label %59, label %73

59:                                               ; preds = %51
  %60 = load i32, i32* %2, align 4
  %61 = sext i32 %60 to i64
  %62 = getelementptr inbounds [100000 x %struct.student], [100000 x %struct.student]* @stu, i64 0, i64 %61
  %63 = getelementptr inbounds %struct.student, %struct.student* %62, i32 0, i32 4
  %64 = load i32, i32* %63, align 4
  %65 = icmp eq i32 %64, 0
  br i1 %65, label %66, label %73

66:                                               ; preds = %59
  %67 = load i32, i32* %2, align 4
  %68 = sext i32 %67 to i64
  %69 = getelementptr inbounds [100000 x %struct.student], [100000 x %struct.student]* @stu, i64 0, i64 %68
  %70 = getelementptr inbounds %struct.student, %struct.student* %69, i32 0, i32 3
  %71 = load i32, i32* %70, align 4
  store i32 %71, i32* %3, align 4
  %72 = load i32, i32* %2, align 4
  store i32 %72, i32* %4, align 4
  br label %73

73:                                               ; preds = %66, %59, %51
  br label %74

74:                                               ; preds = %73
  %75 = load i32, i32* %2, align 4
  %76 = add nsw i32 %75, 1
  store i32 %76, i32* %2, align 4
  br label %47

77:                                               ; preds = %47
  %78 = load i32, i32* %4, align 4
  %79 = add nsw i32 %78, 1
  %80 = load i32, i32* %3, align 4
  %81 = call i32 (i8*, ...) @printf(i8* getelementptr inbounds ([7 x i8], [7 x i8]* @.str.2, i64 0, i64 0), i32 %79, i32 %80)
  store i32 0, i32* %3, align 4
  %82 = load i32, i32* %4, align 4
  %83 = sext i32 %82 to i64
  %84 = getelementptr inbounds [100000 x %struct.student], [100000 x %struct.student]* @stu, i64 0, i64 %83
  %85 = getelementptr inbounds %struct.student, %struct.student* %84, i32 0, i32 4
  store i32 1, i32* %85, align 4
  store i32 0, i32* %4, align 4
  store i32 0, i32* %2, align 4
  br label %86

86:                                               ; preds = %113, %77
  %87 = load i32, i32* %2, align 4
  %88 = load i32, i32* %1, align 4
  %89 = icmp slt i32 %87, %88
  br i1 %89, label %90, label %116

90:                                               ; preds = %86
  %91 = load i32, i32* %3, align 4
  %92 = load i32, i32* %2, align 4
  %93 = sext i32 %92 to i64
  %94 = getelementptr inbounds [100000 x %struct.student], [100000 x %struct.student]* @stu, i64 0, i64 %93
  %95 = getelementptr inbounds %struct.student, %struct.student* %94, i32 0, i32 3
  %96 = load i32, i32* %95, align 4
  %97 = icmp slt i32 %91, %96
  br i1 %97, label %98, label %112

98:                                               ; preds = %90
  %99 = load i32, i32* %2, align 4
  %100 = sext i32 %99 to i64
  %101 = getelementptr inbounds [100000 x %struct.student], [100000 x %struct.student]* @stu, i64 0, i64 %100
  %102 = getelementptr inbounds %struct.student, %struct.student* %101, i32 0, i32 4
  %103 = load i32, i32* %102, align 4
  %104 = icmp eq i32 %103, 0
  br i1 %104, label %105, label %112

105:                                              ; preds = %98
  %106 = load i32, i32* %2, align 4
  %107 = sext i32 %106 to i64
  %108 = getelementptr inbounds [100000 x %struct.student], [100000 x %struct.student]* @stu, i64 0, i64 %107
  %109 = getelementptr inbounds %struct.student, %struct.student* %108, i32 0, i32 3
  %110 = load i32, i32* %109, align 4
  store i32 %110, i32* %3, align 4
  %111 = load i32, i32* %2, align 4
  store i32 %111, i32* %4, align 4
  br label %112

112:                                              ; preds = %105, %98, %90
  br label %113

113:                                              ; preds = %112
  %114 = load i32, i32* %2, align 4
  %115 = add nsw i32 %114, 1
  store i32 %115, i32* %2, align 4
  br label %86

116:                                              ; preds = %86
  %117 = load i32, i32* %4, align 4
  %118 = add nsw i32 %117, 1
  %119 = load i32, i32* %3, align 4
  %120 = call i32 (i8*, ...) @printf(i8* getelementptr inbounds ([7 x i8], [7 x i8]* @.str.2, i64 0, i64 0), i32 %118, i32 %119)
  store i32 0, i32* %3, align 4
  %121 = load i32, i32* %4, align 4
  %122 = sext i32 %121 to i64
  %123 = getelementptr inbounds [100000 x %struct.student], [100000 x %struct.student]* @stu, i64 0, i64 %122
  %124 = getelementptr inbounds %struct.student, %struct.student* %123, i32 0, i32 4
  store i32 1, i32* %124, align 4
  store i32 0, i32* %4, align 4
  store i32 0, i32* %2, align 4
  br label %125

125:                                              ; preds = %152, %116
  %126 = load i32, i32* %2, align 4
  %127 = load i32, i32* %1, align 4
  %128 = icmp slt i32 %126, %127
  br i1 %128, label %129, label %155

129:                                              ; preds = %125
  %130 = load i32, i32* %3, align 4
  %131 = load i32, i32* %2, align 4
  %132 = sext i32 %131 to i64
  %133 = getelementptr inbounds [100000 x %struct.student], [100000 x %struct.student]* @stu, i64 0, i64 %132
  %134 = getelementptr inbounds %struct.student, %struct.student* %133, i32 0, i32 3
  %135 = load i32, i32* %134, align 4
  %136 = icmp slt i32 %130, %135
  br i1 %136, label %137, label %151

137:                                              ; preds = %129
  %138 = load i32, i32* %2, align 4
  %139 = sext i32 %138 to i64
  %140 = getelementptr inbounds [100000 x %struct.student], [100000 x %struct.student]* @stu, i64 0, i64 %139
  %141 = getelementptr inbounds %struct.student, %struct.student* %140, i32 0, i32 4
  %142 = load i32, i32* %141, align 4
  %143 = icmp eq i32 %142, 0
  br i1 %143, label %144, label %151

144:                                              ; preds = %137
  %145 = load i32, i32* %2, align 4
  %146 = sext i32 %145 to i64
  %147 = getelementptr inbounds [100000 x %struct.student], [100000 x %struct.student]* @stu, i64 0, i64 %146
  %148 = getelementptr inbounds %struct.student, %struct.student* %147, i32 0, i32 3
  %149 = load i32, i32* %148, align 4
  store i32 %149, i32* %3, align 4
  %150 = load i32, i32* %2, align 4
  store i32 %150, i32* %4, align 4
  br label %151

151:                                              ; preds = %144, %137, %129
  br label %152

152:                                              ; preds = %151
  %153 = load i32, i32* %2, align 4
  %154 = add nsw i32 %153, 1
  store i32 %154, i32* %2, align 4
  br label %125

155:                                              ; preds = %125
  %156 = load i32, i32* %4, align 4
  %157 = add nsw i32 %156, 1
  %158 = load i32, i32* %3, align 4
  %159 = call i32 (i8*, ...) @printf(i8* getelementptr inbounds ([7 x i8], [7 x i8]* @.str.2, i64 0, i64 0), i32 %157, i32 %158)
  store i32 0, i32* %3, align 4
  %160 = load i32, i32* %4, align 4
  %161 = sext i32 %160 to i64
  %162 = getelementptr inbounds [100000 x %struct.student], [100000 x %struct.student]* @stu, i64 0, i64 %161
  %163 = getelementptr inbounds %struct.student, %struct.student* %162, i32 0, i32 4
  store i32 1, i32* %163, align 4
  store i32 0, i32* %4, align 4
  ret void
}

declare dso_local i32 @__isoc99_scanf(i8*, ...) #1

declare dso_local i32 @printf(i8*, ...) #1


!llvm.module.flags = !{!0}
!llvm.ident = !{!1}

!0 = !{i32 1, !"wchar_size", i32 4}
!1 = !{!"clang version 10.0.0-4ubuntu1 "}
